; Function Attrs: nounwind uwtable
define hidden noundef i32 @dom_node_owner_document_read(ptr noundef %0, ptr noundef %1) local_unnamed_addr #0 {
  %3 = tail call ptr @dom_object_get_node(ptr noundef %0) #12
  %4 = icmp eq ptr %3, null
  br i1 %4, label %5, label %6

5:                                                ; preds = %2
  tail call void @php_dom_throw_error(i32 noundef 11, i32 noundef 1) #12
  br label %16

6:                                                ; preds = %2
  %7 = getelementptr inbounds i8, ptr %3, i64 8
  %8 = load i32, ptr %7, align 8
  switch i32 %8, label %11 [
    i32 9, label %9
    i32 13, label %9
  ]

9:                                                ; preds = %6, %6
  %10 = getelementptr inbounds i8, ptr %1, i64 8
  store i32 1, ptr %10, align 8
  br label %16

11:                                               ; preds = %6
  %12 = getelementptr inbounds i8, ptr %3, i64 64
  %13 = load ptr, ptr %12, align 8
  %.not = icmp eq ptr %13, null
  br i1 %.not, label %16, label %14

14:                                               ; preds = %11
  %15 = tail call zeroext i1 @php_dom_create_object(ptr noundef nonnull %13, ptr noundef %1, ptr noundef %0) #12
  br label %16

16:                                               ; preds = %11, %14, %9, %5
  %.0 = phi i32 [ -1, %5 ], [ 0, %9 ], [ 0, %14 ], [ -1, %11 ]
  ret i32 %.0
}